Certificate:
    Data:
        Version: 3 (0x2)
        Serial Number: 1 (0x1)
    Signature Algorithm: sha256WithRSAEncryption
        Issuer: C=AU, ST=Some-State, O=Internet Widgits Pty Ltd, CN=testca
        Validity
            Not Before: Sep  5 05:32:16 2018 GMT
            Not After : Sep  5 05:32:16 2019 GMT
        Subject: C=AU, ST=Some-State, O=Internet Widgits Pty Ltd, CN=testclient1
        Subject Public Key Info:
            Public Key Algorithm: rsaEncryption
                Public-Key: (1024 bit)
                Modulus:
                    00:bb:69:97:ee:c2:66:15:98:5f:32:ed:30:74:77:
                    d8:b7:be:79:9e:d3:9d:b6:f8:2e:87:3f:ac:f3:6d:
                    ab:9c:d3:87:d6:85:ea:9d:c8:66:de:67:f4:fa:80:
                    b5:1c:da:a6:b7:e9:44:69:07:d0:77:56:78:5c:78:
                    40:28:89:51:30:7f:89:2b:38:be:7f:90:8e:2d:30:
                    99:e9:0b:80:81:08:95:91:90:89:81:a9:8f:7e:9e:
                    5f:b0:c0:16:32:91:21:73:b8:72:d3:20:97:55:1c:
                    a5:f3:38:8a:dc:bf:21:ff:ec:d5:18:e7:86:82:79:
                    85:89:7f:d8:f7:11:86:d8:61
                Exponent: 65537 (0x10001)
        X509v3 extensions:
            X509v3 Basic Constraints: 
                CA:FALSE
            Netscape Comment: 
                OpenSSL Generated Certificate
            X509v3 Subject Key Identifier: 
                1D:98:91:63:3E:15:26:C2:C3:3C:AA:E9:CC:34:4F:A2:F0:B1:CC:14
            X509v3 Authority Key Identifier: 
                DirName:/C=AU/ST=Some-State/O=Internet Widgits Pty Ltd/CN=testca
                serial:91:C6:19:1E:1D:1A:2A:07

    Signature Algorithm: sha256WithRSAEncryption
         6a:a5:11:15:b4:2b:84:bf:96:40:10:f4:f1:e4:4e:e8:25:f3:
         07:19:19:e4:0d:2f:98:ab:0d:75:28:d9:c4:3e:63:1d:34:18:
         2c:2e:75:06:29:a7:d0:26:a5:47:2f:28:d4:1c:45:51:4b:9c:
         bf:ae:78:32:d0:60:b2:28:49:21:0b:c5:6a:6f:5f:a8:19:84:
         72:40:de:25:9d:6e:df:fd:9a:51:a4:bf:c6:1a:9d:89:c5:4a:
         a1:f3:70:a1:f4:c1:e5:c0:0f:79:83:8b:55:e7:b3:e5:bf:1b:
         ee:ad:7e:79:33:f4:4b:13:b5:68:cd:88:a7:01:05:8b:3e:9c:
         e7:f6
-----BEGIN CERTIFICATE-----
MIIC9TCCAl6gAwIBAgIBATANBgkqhkiG9w0BAQsFADBWMQswCQYDVQQGEwJBVTET
MBEGA1UECBMKU29tZS1TdGF0ZTEhMB8GA1UEChMYSW50ZXJuZXQgV2lkZ2l0cyBQ
dHkgTHRkMQ8wDQYDVQQDEwZ0ZXN0Y2EwHhcNMTgwOTA1MDUzMjE2WhcNMTkwOTA1
MDUzMjE2WjBbMQswCQYDVQQGEwJBVTETMBEGA1UECBMKU29tZS1TdGF0ZTEhMB8G
A1UEChMYSW50ZXJuZXQgV2lkZ2l0cyBQdHkgTHRkMRQwEgYDVQQDEwt0ZXN0Y2xp
ZW50MTCBnzANBgkqhkiG9w0BAQEFAAOBjQAwgYkCgYEAu2mX7sJmFZhfMu0wdHfY
t755ntOdtvguhz+s822rnNOH1oXqnchm3mf0+oC1HNqmt+lEaQfQd1Z4XHhAKIlR
MH+JKzi+f5COLTCZ6QuAgQiVkZCJgamPfp5fsMAWMpEhc7hy0yCXVRyl8ziK3L8h
/+zVGOeGgnmFiX/Y9xGG2GECAwEAAaOBzTCByjAJBgNVHRMEAjAAMCwGCWCGSAGG
+EIBDQQfFh1PcGVuU1NMIEdlbmVyYXRlZCBDZXJ0aWZpY2F0ZTAdBgNVHQ4EFgQU
HZiRYz4VJsLDPKrpzDRPovCxzBQwcAYDVR0jBGkwZ6FapFgwVjELMAkGA1UEBhMC
QVUxEzARBgNVBAgTClNvbWUtU3RhdGUxITAfBgNVBAoTGEludGVybmV0IFdpZGdp
dHMgUHR5IEx0ZDEPMA0GA1UEAxMGdGVzdGNhggkAkcYZHh0aKgcwDQYJKoZIhvcN
AQELBQADgYEAaqURFbQrhL+WQBD08eRO6CXzBxkZ5A0vmKsNdSjZxD5jHTQYLC51
Bimn0CalRy8o1BxFUUucv654MtBgsihJIQvFam9fqBmEckDeJZ1u3/2aUaS/xhqd
icVKofNwofTB5cAPeYOLVeez5b8b7q1+eTP0SxO1aM2IpwEFiz6c5/Y=
-----END CERTIFICATE-----
